target datalayout = "e-m:e-p270:32:32-p271:32:32-p272:64:64-i64:64-i128:128-f80:128-n8:16:32:64-S128"
target triple = "x86_64-pc-linux-gnu"

%struct.stat = type { i64, i64, i64, i32, i32, i32, i32, i64, i64, i64, i64, %struct.timespec, %struct.timespec, %struct.timespec, [3 x i64] }
%struct.timespec = type { i64, i64 }
%struct._archiveHandle = type { %struct.Archive, i32, ptr, ptr, i64, i64, i32, %struct.sqlparseInfo, i64, i32, ptr, i64, i64, i64, ptr, ptr, ptr, ptr, ptr, ptr, ptr, ptr, ptr, ptr, ptr, ptr, ptr, ptr, ptr, ptr, ptr, ptr, ptr, ptr, ptr, ptr, ptr, ptr, ptr, ptr, ptr, ptr, ptr, ptr, i32, i32, i8, i32, i8, i32, ptr, ptr, ptr, ptr, i32, i32, ptr, ptr, ptr, %struct.pg_compress_specification, i8, i32, i32, ptr, ptr, ptr, ptr, ptr, i32, ptr, i64, i64, i32, i32, i32, i32, ptr, ptr }
%struct.Archive = type { ptr, ptr, i32, ptr, i32, i8, i32, i32, i32, ptr, i32, i8, ptr, ptr, i8, i32, ptr }
%struct.sqlparseInfo = type { i32, i8, ptr }
%struct.pg_compress_specification = type { i32, i32, i32, i32, i8, ptr }
%struct._tocEntry = type { ptr, ptr, %struct.CatalogId, i32, i32, i8, ptr, ptr, ptr, ptr, i8, ptr, ptr, ptr, ptr, ptr, ptr, i32, ptr, ptr, ptr, i64, i32, i8, ptr, ptr, i32, ptr, i32, ptr, i32 }
%struct.CatalogId = type { i32, i32 }
%struct.lclTocEntry = type { ptr }

@.str.11 = private unnamed_addr constant [6 x i8] c"BLOBS\00", align 1
@.str.35 = private unnamed_addr constant [4 x i8] c".gz\00", align 1
@.str.36 = private unnamed_addr constant [5 x i8] c".lz4\00", align 1
@.str.37 = private unnamed_addr constant [5 x i8] c".zst\00", align 1

; Function Attrs: nounwind uwtable
define internal void @_PrepParallelRestore(ptr noundef %0) #0 {
  %2 = alloca ptr, align 8
  %3 = alloca ptr, align 8
  %4 = alloca ptr, align 8
  %5 = alloca [1024 x i8], align 16
  %6 = alloca %struct.stat, align 8
  %7 = alloca i32, align 4
  store ptr %0, ptr %2, align 8
  call void @llvm.lifetime.start.p0(i64 8, ptr %3) #9
  %8 = load ptr, ptr %2, align 8
  %9 = getelementptr inbounds nuw %struct._archiveHandle, ptr %8, i32 0, i32 53
  %10 = load ptr, ptr %9, align 8
  %11 = getelementptr inbounds nuw %struct._tocEntry, ptr %10, i32 0, i32 1
  %12 = load ptr, ptr %11, align 8
  store ptr %12, ptr %3, align 8
  br label %13

13:                                               ; preds = %110, %1
  %14 = load ptr, ptr %3, align 8
  %15 = load ptr, ptr %2, align 8
  %16 = getelementptr inbounds nuw %struct._archiveHandle, ptr %15, i32 0, i32 53
  %17 = load ptr, ptr %16, align 8
  %18 = icmp ne ptr %14, %17
  br i1 %18, label %19, label %114

19:                                               ; preds = %13
  call void @llvm.lifetime.start.p0(i64 8, ptr %4) #9
  %20 = load ptr, ptr %3, align 8
  %21 = getelementptr inbounds nuw %struct._tocEntry, ptr %20, i32 0, i32 20
  %22 = load ptr, ptr %21, align 8
  store ptr %22, ptr %4, align 8
  call void @llvm.lifetime.start.p0(i64 1024, ptr %5) #9
  call void @llvm.lifetime.start.p0(i64 144, ptr %6) #9
  %23 = load ptr, ptr %4, align 8
  %24 = getelementptr inbounds nuw %struct.lclTocEntry, ptr %23, i32 0, i32 0
  %25 = load ptr, ptr %24, align 8
  %26 = icmp eq ptr %25, null
  br i1 %26, label %27, label %28

27:                                               ; preds = %19
  store i32 4, ptr %7, align 4
  br label %107

28:                                               ; preds = %19
  %29 = load ptr, ptr %3, align 8
  %30 = getelementptr inbounds nuw %struct._tocEntry, ptr %29, i32 0, i32 22
  %31 = load i32, ptr %30, align 8
  %32 = and i32 %31, 2
  %33 = icmp eq i32 %32, 0
  br i1 %33, label %34, label %35

34:                                               ; preds = %28
  store i32 4, ptr %7, align 4
  br label %107

35:                                               ; preds = %28
  %36 = load ptr, ptr %2, align 8
  %37 = getelementptr inbounds [1024 x i8], ptr %5, i64 0, i64 0
  %38 = load ptr, ptr %4, align 8
  %39 = getelementptr inbounds nuw %struct.lclTocEntry, ptr %38, i32 0, i32 0
  %40 = load ptr, ptr %39, align 8
  call void @setFilePath(ptr noundef %36, ptr noundef %37, ptr noundef %40)
  %41 = getelementptr inbounds [1024 x i8], ptr %5, i64 0, i64 0
  %42 = call i32 @stat(ptr noundef %41, ptr noundef %6) #9
  %43 = icmp eq i32 %42, 0
  br i1 %43, label %44, label %49

44:                                               ; preds = %35
  %45 = getelementptr inbounds nuw %struct.stat, ptr %6, i32 0, i32 8
  %46 = load i64, ptr %45, align 8
  %47 = load ptr, ptr %3, align 8
  %48 = getelementptr inbounds nuw %struct._tocEntry, ptr %47, i32 0, i32 21
  store i64 %46, ptr %48, align 8
  br label %95

49:                                               ; preds = %35
  %50 = load ptr, ptr %2, align 8
  %51 = getelementptr inbounds nuw %struct._archiveHandle, ptr %50, i32 0, i32 59
  %52 = getelementptr inbounds nuw %struct.pg_compress_specification, ptr %51, i32 0, i32 0
  %53 = load i32, ptr %52, align 8
  %54 = icmp ne i32 %53, 0
  br i1 %54, label %55, label %94

55:                                               ; preds = %49
  %56 = load ptr, ptr %2, align 8
  %57 = getelementptr inbounds nuw %struct._archiveHandle, ptr %56, i32 0, i32 59
  %58 = getelementptr inbounds nuw %struct.pg_compress_specification, ptr %57, i32 0, i32 0
  %59 = load i32, ptr %58, align 8
  %60 = icmp eq i32 %59, 1
  br i1 %60, label %61, label %64

61:                                               ; preds = %55
  %62 = getelementptr inbounds [1024 x i8], ptr %5, i64 0, i64 0
  %63 = call i64 @strlcat(ptr noundef %62, ptr noundef @.str.35, i64 noundef 1024)
  br label %84

64:                                               ; preds = %55
  %65 = load ptr, ptr %2, align 8
  %66 = getelementptr inbounds nuw %struct._archiveHandle, ptr %65, i32 0, i32 59
  %67 = getelementptr inbounds nuw %struct.pg_compress_specification, ptr %66, i32 0, i32 0
  %68 = load i32, ptr %67, align 8
  %69 = icmp eq i32 %68, 2
  br i1 %69, label %70, label %73

70:                                               ; preds = %64
  %71 = getelementptr inbounds [1024 x i8], ptr %5, i64 0, i64 0
  %72 = call i64 @strlcat(ptr noundef %71, ptr noundef @.str.36, i64 noundef 1024)
  br label %83

73:                                               ; preds = %64
  %74 = load ptr, ptr %2, align 8
  %75 = getelementptr inbounds nuw %struct._archiveHandle, ptr %74, i32 0, i32 59
  %76 = getelementptr inbounds nuw %struct.pg_compress_specification, ptr %75, i32 0, i32 0
  %77 = load i32, ptr %76, align 8
  %78 = icmp eq i32 %77, 3
  br i1 %78, label %79, label %82

79:                                               ; preds = %73
  %80 = getelementptr inbounds [1024 x i8], ptr %5, i64 0, i64 0
  %81 = call i64 @strlcat(ptr noundef %80, ptr noundef @.str.37, i64 noundef 1024)
  br label %82

82:                                               ; preds = %79, %73
  br label %83

83:                                               ; preds = %82, %70
  br label %84

84:                                               ; preds = %83, %61
  %85 = getelementptr inbounds [1024 x i8], ptr %5, i64 0, i64 0
  %86 = call i32 @stat(ptr noundef %85, ptr noundef %6) #9
  %87 = icmp eq i32 %86, 0
  br i1 %87, label %88, label %93

88:                                               ; preds = %84
  %89 = getelementptr inbounds nuw %struct.stat, ptr %6, i32 0, i32 8
  %90 = load i64, ptr %89, align 8
  %91 = load ptr, ptr %3, align 8
  %92 = getelementptr inbounds nuw %struct._tocEntry, ptr %91, i32 0, i32 21
  store i64 %90, ptr %92, align 8
  br label %93

93:                                               ; preds = %88, %84
  br label %94

94:                                               ; preds = %93, %49
  br label %95

95:                                               ; preds = %94, %44
  %96 = load ptr, ptr %3, align 8
  %97 = getelementptr inbounds nuw %struct._tocEntry, ptr %96, i32 0, i32 12
  %98 = load ptr, ptr %97, align 8
  %99 = call i32 @strcmp(ptr noundef %98, ptr noundef @.str.11) #10
  %100 = icmp eq i32 %99, 0
  br i1 %100, label %101, label %106

101:                                              ; preds = %95
  %102 = load ptr, ptr %3, align 8
  %103 = getelementptr inbounds nuw %struct._tocEntry, ptr %102, i32 0, i32 21
  %104 = load i64, ptr %103, align 8
  %105 = mul i64 %104, 1024
  store i64 %105, ptr %103, align 8
  br label %106

106:                                              ; preds = %101, %95
  store i32 0, ptr %7, align 4
  br label %107

107:                                              ; preds = %106, %34, %27
  call void @llvm.lifetime.end.p0(i64 144, ptr %6) #9
  call void @llvm.lifetime.end.p0(i64 1024, ptr %5) #9
  call void @llvm.lifetime.end.p0(i64 8, ptr %4) #9
  %108 = load i32, ptr %7, align 4
  switch i32 %108, label %115 [
    i32 0, label %109
    i32 4, label %110
  ]

109:                                              ; preds = %107
  br label %110

110:                                              ; preds = %109, %107
  %111 = load ptr, ptr %3, align 8
  %112 = getelementptr inbounds nuw %struct._tocEntry, ptr %111, i32 0, i32 1
  %113 = load ptr, ptr %112, align 8
  store ptr %113, ptr %3, align 8
  br label %13, !llvm.loop !8

114:                                              ; preds = %13
  call void @llvm.lifetime.end.p0(i64 8, ptr %3) #9
  ret void

115:                                              ; preds = %107
  unreachable
}