; Function Attrs: nounwind uwtable
define internal void @_PrepParallelRestore(ptr noundef readonly captures(none) %0) #0 {
  %2 = alloca [1024 x i8], align 16
  %3 = alloca %struct.stat, align 8
  %4 = getelementptr inbounds nuw i8, ptr %0, i64 504
  %5 = load ptr, ptr %4, align 8
  %.0.in20 = getelementptr inbounds nuw i8, ptr %5, i64 8
  %.021 = load ptr, ptr %.0.in20, align 8
  %.not22 = icmp eq ptr %.021, %5
  br i1 %.not22, label %._crit_edge, label %.lr.ph

.lr.ph:                                           ; preds = %1
  %6 = getelementptr i8, ptr %0, i64 592
  %7 = getelementptr inbounds nuw i8, ptr %0, i64 544
  %8 = getelementptr inbounds nuw i8, ptr %3, i64 48
  br label %9

9:                                                ; preds = %.lr.ph, %41
  %.023 = phi ptr [ %.021, %.lr.ph ], [ %.0, %41 ]
  %10 = getelementptr inbounds nuw i8, ptr %.023, i64 152
  %11 = load ptr, ptr %10, align 8
  call void @llvm.lifetime.start.p0(i64 1024, ptr nonnull %2) #14
  call void @llvm.lifetime.start.p0(i64 144, ptr nonnull %3) #14
  %12 = load ptr, ptr %11, align 8
  %13 = icmp eq ptr %12, null
  br i1 %13, label %41, label %14

14:                                               ; preds = %9
  %15 = getelementptr inbounds nuw i8, ptr %.023, i64 168
  %16 = load i32, ptr %15, align 8
  %17 = and i32 %16, 2
  %18 = icmp eq i32 %17, 0
  br i1 %18, label %41, label %19

19:                                               ; preds = %14
  %.val = load ptr, ptr %6, align 8
  %.val.val = load ptr, ptr %.val, align 8
  call fastcc void @setFilePath(ptr %.val.val, ptr noundef %2, ptr noundef nonnull %12)
  %20 = call i32 @stat(ptr noundef nonnull %2, ptr noundef nonnull %3) #14
  %21 = icmp eq i32 %20, 0
  br i1 %21, label %.sink.split24, label %22

22:                                               ; preds = %19
  %23 = load i32, ptr %7, align 8
  switch i32 %23, label %27 [
    i32 0, label %32
    i32 1, label %.sink.split
    i32 2, label %24
    i32 3, label %25
  ]

24:                                               ; preds = %22
  br label %.sink.split

25:                                               ; preds = %22
  br label %.sink.split

.sink.split:                                      ; preds = %22, %25, %24
  %.str.36.sink = phi ptr [ @.str.36, %24 ], [ @.str.37, %25 ], [ @.str.35, %22 ]
  %26 = call i64 @strlcat(ptr noundef nonnull %2, ptr noundef nonnull %.str.36.sink, i64 noundef 1024) #14
  br label %27

27:                                               ; preds = %.sink.split, %22
  %28 = call i32 @stat(ptr noundef nonnull %2, ptr noundef nonnull %3) #14
  %29 = icmp eq i32 %28, 0
  br i1 %29, label %.sink.split24, label %32

.sink.split24:                                    ; preds = %27, %19
  %30 = load i64, ptr %8, align 8
  %31 = getelementptr inbounds nuw i8, ptr %.023, i64 160
  store i64 %30, ptr %31, align 8
  br label %32

32:                                               ; preds = %.sink.split24, %22, %27
  %33 = getelementptr inbounds nuw i8, ptr %.023, i64 88
  %34 = load ptr, ptr %33, align 8
  %35 = call i32 @strcmp(ptr noundef nonnull dereferenceable(1) %34, ptr noundef nonnull dereferenceable(6) @.str.11) #17
  %36 = icmp eq i32 %35, 0
  br i1 %36, label %37, label %41

37:                                               ; preds = %32
  %38 = getelementptr inbounds nuw i8, ptr %.023, i64 160
  %39 = load i64, ptr %38, align 8
  %40 = shl i64 %39, 10
  store i64 %40, ptr %38, align 8
  br label %41

41:                                               ; preds = %32, %37, %14, %9
  call void @llvm.lifetime.end.p0(i64 144, ptr nonnull %3) #14
  call void @llvm.lifetime.end.p0(i64 1024, ptr nonnull %2) #14
  %.0.in = getelementptr inbounds nuw i8, ptr %.023, i64 8
  %.0 = load ptr, ptr %.0.in, align 8
  %42 = load ptr, ptr %4, align 8
  %.not = icmp eq ptr %.0, %42
  br i1 %.not, label %._crit_edge, label %9, !llvm.loop !9

._crit_edge:                                      ; preds = %41, %1
  ret void
}